; Function Attrs: nounwind uwtable
define internal fastcc void @_jumbleMultiAssignRef(ptr noundef %0, ptr noundef nonnull readonly captures(none) %1) unnamed_addr #0 {
  %3 = getelementptr inbounds nuw i8, ptr %1, i64 8
  %4 = load ptr, ptr %3, align 8
  tail call fastcc void @_jumbleNode(ptr noundef %0, ptr noundef %4)
  %5 = getelementptr inbounds nuw i8, ptr %1, i64 16
  %6 = load ptr, ptr %0, align 8
  %7 = getelementptr inbounds nuw i8, ptr %0, i64 8
  %8 = load i64, ptr %7, align 8
  br label %.lr.ph.i

.lr.ph.i:                                         ; preds = %12, %2
  %.026.i = phi ptr [ %17, %12 ], [ %5, %2 ]
  %.02125.i = phi i64 [ %18, %12 ], [ 4, %2 ]
  %.02224.i = phi i64 [ %16, %12 ], [ %8, %2 ]
  %9 = icmp ugt i64 %.02224.i, 1023
  br i1 %9, label %10, label %12

10:                                               ; preds = %.lr.ph.i
  %11 = tail call i64 @hash_bytes_extended(ptr noundef %6, i32 noundef 1024, i64 noundef 0) #9
  store i64 %11, ptr %6, align 1
  br label %12

12:                                               ; preds = %10, %.lr.ph.i
  %.1.i = phi i64 [ 8, %10 ], [ %.02224.i, %.lr.ph.i ]
  %13 = sub nuw nsw i64 1024, %.1.i
  %14 = tail call i64 @llvm.umin.i64(i64 %.02125.i, i64 %13)
  %15 = getelementptr inbounds nuw i8, ptr %6, i64 %.1.i
  tail call void @llvm.memcpy.p0.p0.i64(ptr noundef nonnull align 1 dereferenceable(1) %15, ptr noundef nonnull align 1 dereferenceable(1) %.026.i, i64 %14, i1 false)
  %16 = add nuw nsw i64 %14, %.1.i
  %17 = getelementptr inbounds nuw i8, ptr %.026.i, i64 %14
  %18 = sub i64 %.02125.i, %14
  %.not.i = icmp eq i64 %18, 0
  br i1 %.not.i, label %AppendJumble.exit, label %.lr.ph.i, !llvm.loop !7

AppendJumble.exit:                                ; preds = %12
  store i64 %16, ptr %7, align 8
  %19 = getelementptr inbounds nuw i8, ptr %1, i64 20
  %20 = load ptr, ptr %0, align 8
  br label %.lr.ph.i7

.lr.ph.i7:                                        ; preds = %24, %AppendJumble.exit
  %.026.i8 = phi ptr [ %29, %24 ], [ %19, %AppendJumble.exit ]
  %.02125.i9 = phi i64 [ %30, %24 ], [ 4, %AppendJumble.exit ]
  %.02224.i10 = phi i64 [ %28, %24 ], [ %16, %AppendJumble.exit ]
  %21 = icmp ugt i64 %.02224.i10, 1023
  br i1 %21, label %22, label %24

22:                                               ; preds = %.lr.ph.i7
  %23 = tail call i64 @hash_bytes_extended(ptr noundef %20, i32 noundef 1024, i64 noundef 0) #9
  store i64 %23, ptr %20, align 1
  br label %24

24:                                               ; preds = %22, %.lr.ph.i7
  %.1.i11 = phi i64 [ 8, %22 ], [ %.02224.i10, %.lr.ph.i7 ]
  %25 = sub nuw nsw i64 1024, %.1.i11
  %26 = tail call i64 @llvm.umin.i64(i64 %.02125.i9, i64 %25)
  %27 = getelementptr inbounds nuw i8, ptr %20, i64 %.1.i11
  tail call void @llvm.memcpy.p0.p0.i64(ptr noundef nonnull align 1 dereferenceable(1) %27, ptr noundef nonnull align 1 dereferenceable(1) %.026.i8, i64 %26, i1 false)
  %28 = add nuw nsw i64 %26, %.1.i11
  %29 = getelementptr inbounds nuw i8, ptr %.026.i8, i64 %26
  %30 = sub i64 %.02125.i9, %26
  %.not.i12 = icmp eq i64 %30, 0
  br i1 %.not.i12, label %AppendJumble.exit13, label %.lr.ph.i7, !llvm.loop !7

AppendJumble.exit13:                              ; preds = %24
  store i64 %28, ptr %7, align 8
  ret void
}